target datalayout = "e-m:e-p270:32:32-p271:32:32-p272:64:64-i64:64-i128:128-f80:128-n8:16:32:64-S128"
target triple = "x86_64-pc-linux-gnu"

%struct.cli_matcher = type { i32, ptr, ptr, ptr, ptr, i32, i32, i32, i32, i32, %struct.cli_hash_patt, %struct.cli_hash_wild, i32, i32, i32, i32, i32, ptr, ptr, ptr, ptr, ptr, ptr, i32, i32, i8, i8, ptr, i16, i8, i32, ptr, i32, i32, i32, ptr, ptr, i32, ptr, i64, i64, ptr }
%struct.cli_hash_patt = type { [3 x %struct.cli_htu32] }
%struct.cli_htu32 = type { ptr, i64, i64, i64 }
%struct.cli_hash_wild = type { [3 x %struct.cli_sz_hash] }
%struct.cli_sz_hash = type { ptr, ptr, i32 }
%struct.cli_ac_patt = type { ptr, ptr, [3 x i16], [3 x i16], i32, i32, i32, [3 x i32], [2 x i16], ptr, ptr, [2 x i16], [2 x i16], i16, i16, i16, i16, ptr, i16, i16, [4 x i32], i32, i32, i32, i8, i8 }

@.str = private unnamed_addr constant [43 x i8] c"cli_ac_addpatt: Can't realloc ac_pattable\0A\00", align 1

; Function Attrs: nounwind uwtable
define i32 @cli_ac_addpatt(ptr noundef %0, ptr noundef %1) #0 {
  %3 = alloca i32, align 4
  %4 = alloca ptr, align 8
  %5 = alloca ptr, align 8
  %6 = alloca ptr, align 8
  %7 = alloca i16, align 2
  %8 = alloca i16, align 2
  %9 = alloca i32, align 4
  store ptr %0, ptr %4, align 8, !tbaa !3
  store ptr %1, ptr %5, align 8, !tbaa !8
  call void @llvm.lifetime.start.p0(i64 8, ptr %6) #16
  call void @llvm.lifetime.start.p0(i64 2, ptr %7) #16
  %10 = load ptr, ptr %4, align 8, !tbaa !3
  %11 = getelementptr inbounds nuw %struct.cli_matcher, ptr %10, i32 0, i32 26
  %12 = load i8, ptr %11, align 1, !tbaa !10
  %13 = zext i8 %12 to i32
  %14 = load ptr, ptr %5, align 8, !tbaa !8
  %15 = getelementptr inbounds nuw %struct.cli_ac_patt, ptr %14, i32 0, i32 2
  %16 = getelementptr inbounds [3 x i16], ptr %15, i64 0, i64 0
  %17 = load i16, ptr %16, align 8, !tbaa !30
  %18 = zext i16 %17 to i32
  %19 = icmp slt i32 %13, %18
  br i1 %19, label %20, label %25

20:                                               ; preds = %2
  %21 = load ptr, ptr %4, align 8, !tbaa !3
  %22 = getelementptr inbounds nuw %struct.cli_matcher, ptr %21, i32 0, i32 26
  %23 = load i8, ptr %22, align 1, !tbaa !10
  %24 = zext i8 %23 to i32
  br label %31

25:                                               ; preds = %2
  %26 = load ptr, ptr %5, align 8, !tbaa !8
  %27 = getelementptr inbounds nuw %struct.cli_ac_patt, ptr %26, i32 0, i32 2
  %28 = getelementptr inbounds [3 x i16], ptr %27, i64 0, i64 0
  %29 = load i16, ptr %28, align 8, !tbaa !30
  %30 = zext i16 %29 to i32
  br label %31

31:                                               ; preds = %25, %20
  %32 = phi i32 [ %24, %20 ], [ %30, %25 ]
  %33 = trunc i32 %32 to i16
  store i16 %33, ptr %7, align 2, !tbaa !30
  call void @llvm.lifetime.start.p0(i64 2, ptr %8) #16
  store i16 0, ptr %8, align 2, !tbaa !30
  br label %34

34:                                               ; preds = %54, %31
  %35 = load i16, ptr %8, align 2, !tbaa !30
  %36 = zext i16 %35 to i32
  %37 = load i16, ptr %7, align 2, !tbaa !30
  %38 = zext i16 %37 to i32
  %39 = icmp slt i32 %36, %38
  br i1 %39, label %40, label %57

40:                                               ; preds = %34
  %41 = load ptr, ptr %5, align 8, !tbaa !8
  %42 = getelementptr inbounds nuw %struct.cli_ac_patt, ptr %41, i32 0, i32 0
  %43 = load ptr, ptr %42, align 8, !tbaa !31
  %44 = load i16, ptr %8, align 2, !tbaa !30
  %45 = zext i16 %44 to i64
  %46 = getelementptr inbounds nuw i16, ptr %43, i64 %45
  %47 = load i16, ptr %46, align 2, !tbaa !30
  %48 = zext i16 %47 to i32
  %49 = and i32 %48, 3840
  %50 = icmp ne i32 %49, 0
  br i1 %50, label %51, label %53

51:                                               ; preds = %40
  %52 = load i16, ptr %8, align 2, !tbaa !30
  store i16 %52, ptr %7, align 2, !tbaa !30
  br label %57

53:                                               ; preds = %40
  br label %54

54:                                               ; preds = %53
  %55 = load i16, ptr %8, align 2, !tbaa !30
  %56 = add i16 %55, 1
  store i16 %56, ptr %8, align 2, !tbaa !30
  br label %34

57:                                               ; preds = %51, %34
  %58 = load i16, ptr %7, align 2, !tbaa !30
  %59 = zext i16 %58 to i32
  %60 = load ptr, ptr %4, align 8, !tbaa !3
  %61 = getelementptr inbounds nuw %struct.cli_matcher, ptr %60, i32 0, i32 25
  %62 = load i8, ptr %61, align 8, !tbaa !35
  %63 = zext i8 %62 to i32
  %64 = icmp slt i32 %59, %63
  br i1 %64, label %65, label %66

65:                                               ; preds = %57
  store i32 4, ptr %3, align 4
  store i32 1, ptr %9, align 4
  br label %115

66:                                               ; preds = %57
  %67 = load ptr, ptr %4, align 8, !tbaa !3
  %68 = getelementptr inbounds nuw %struct.cli_matcher, ptr %67, i32 0, i32 15
  %69 = load i32, ptr %68, align 4, !tbaa !36
  %70 = add i32 %69, 1
  store i32 %70, ptr %68, align 4, !tbaa !36
  %71 = load ptr, ptr %4, align 8, !tbaa !3
  %72 = getelementptr inbounds nuw %struct.cli_matcher, ptr %71, i32 0, i32 41
  %73 = load ptr, ptr %72, align 8, !tbaa !37
  %74 = load ptr, ptr %4, align 8, !tbaa !3
  %75 = getelementptr inbounds nuw %struct.cli_matcher, ptr %74, i32 0, i32 21
  %76 = load ptr, ptr %75, align 8, !tbaa !38
  %77 = load ptr, ptr %4, align 8, !tbaa !3
  %78 = getelementptr inbounds nuw %struct.cli_matcher, ptr %77, i32 0, i32 15
  %79 = load i32, ptr %78, align 4, !tbaa !36
  %80 = zext i32 %79 to i64
  %81 = mul i64 %80, 8
  %82 = call ptr @mpool_realloc(ptr noundef %73, ptr noundef %76, i64 noundef %81)
  store ptr %82, ptr %6, align 8, !tbaa !39
  %83 = load ptr, ptr %6, align 8, !tbaa !39
  %84 = icmp ne ptr %83, null
  br i1 %84, label %90, label %85

85:                                               ; preds = %66
  %86 = load ptr, ptr %4, align 8, !tbaa !3
  %87 = getelementptr inbounds nuw %struct.cli_matcher, ptr %86, i32 0, i32 15
  %88 = load i32, ptr %87, align 4, !tbaa !36
  %89 = add i32 %88, -1
  store i32 %89, ptr %87, align 4, !tbaa !36
  call void (ptr, ...) @cli_errmsg(ptr noundef @.str)
  store i32 20, ptr %3, align 4
  store i32 1, ptr %9, align 4
  br label %115

90:                                               ; preds = %66
  %91 = load ptr, ptr %6, align 8, !tbaa !39
  %92 = load ptr, ptr %4, align 8, !tbaa !3
  %93 = getelementptr inbounds nuw %struct.cli_matcher, ptr %92, i32 0, i32 21
  store ptr %91, ptr %93, align 8, !tbaa !38
  %94 = load ptr, ptr %5, align 8, !tbaa !8
  %95 = load ptr, ptr %4, align 8, !tbaa !3
  %96 = getelementptr inbounds nuw %struct.cli_matcher, ptr %95, i32 0, i32 21
  %97 = load ptr, ptr %96, align 8, !tbaa !38
  %98 = load ptr, ptr %4, align 8, !tbaa !3
  %99 = getelementptr inbounds nuw %struct.cli_matcher, ptr %98, i32 0, i32 15
  %100 = load i32, ptr %99, align 4, !tbaa !36
  %101 = sub i32 %100, 1
  %102 = zext i32 %101 to i64
  %103 = getelementptr inbounds nuw ptr, ptr %97, i64 %102
  store ptr %94, ptr %103, align 8, !tbaa !8
  %104 = load i16, ptr %7, align 2, !tbaa !30
  %105 = trunc i16 %104 to i8
  %106 = load ptr, ptr %5, align 8, !tbaa !8
  %107 = getelementptr inbounds nuw %struct.cli_ac_patt, ptr %106, i32 0, i32 24
  store i8 %105, ptr %107, align 8, !tbaa !40
  %108 = load ptr, ptr %4, align 8, !tbaa !3
  %109 = load ptr, ptr %5, align 8, !tbaa !8
  %110 = load ptr, ptr %4, align 8, !tbaa !3
  %111 = getelementptr inbounds nuw %struct.cli_matcher, ptr %110, i32 0, i32 18
  %112 = load ptr, ptr %111, align 8, !tbaa !41
  %113 = load i16, ptr %7, align 2, !tbaa !30
  %114 = call i32 @cli_ac_addpatt_recursive(ptr noundef %108, ptr noundef %109, ptr noundef %112, i16 noundef zeroext 0, i16 noundef zeroext %113)
  store i32 %114, ptr %3, align 4
  store i32 1, ptr %9, align 4
  br label %115

115:                                              ; preds = %90, %85, %65
  call void @llvm.lifetime.end.p0(i64 2, ptr %8) #16
  call void @llvm.lifetime.end.p0(i64 2, ptr %7) #16
  call void @llvm.lifetime.end.p0(i64 8, ptr %6) #16
  %116 = load i32, ptr %3, align 4
  ret i32 %116
}