; Function Attrs: nounwind uwtable
define range(i32 0, 21) i32 @cli_ac_addpatt(ptr noundef captures(none) %0, ptr noundef %1) local_unnamed_addr #0 {
  %3 = getelementptr inbounds nuw i8, ptr %0, i64 313
  %4 = load i8, ptr %3, align 1, !tbaa !3
  %5 = getelementptr inbounds nuw i8, ptr %1, i64 16
  %6 = load i16, ptr %5, align 8, !tbaa !26
  %7 = zext i8 %4 to i16
  %8 = tail call i16 @llvm.umin.i16(i16 %6, i16 %7)
  %.not38 = icmp eq i16 %8, 0
  br i1 %.not38, label %._crit_edge, label %.lr.ph

.lr.ph:                                           ; preds = %2
  %9 = load ptr, ptr %1, align 8, !tbaa !27
  %wide.trip.count = zext nneg i16 %8 to i64
  br label %10

10:                                               ; preds = %.lr.ph, %14
  %indvars.iv = phi i64 [ 0, %.lr.ph ], [ %indvars.iv.next, %14 ]
  %11 = getelementptr inbounds nuw i16, ptr %9, i64 %indvars.iv
  %12 = load i16, ptr %11, align 2, !tbaa !26
  %13 = and i16 %12, 3840
  %.not = icmp eq i16 %13, 0
  br i1 %.not, label %14, label %._crit_edge.loopexit.split.loop.exit

14:                                               ; preds = %10
  %indvars.iv.next = add nuw nsw i64 %indvars.iv, 1
  %exitcond.not = icmp eq i64 %indvars.iv.next, %wide.trip.count
  br i1 %exitcond.not, label %._crit_edge, label %10

._crit_edge.loopexit.split.loop.exit:             ; preds = %10
  %15 = trunc nuw nsw i64 %indvars.iv to i16
  br label %._crit_edge

._crit_edge:                                      ; preds = %14, %._crit_edge.loopexit.split.loop.exit, %2
  %.029 = phi i16 [ 0, %2 ], [ %15, %._crit_edge.loopexit.split.loop.exit ], [ %8, %14 ]
  %16 = getelementptr inbounds nuw i8, ptr %0, i64 312
  %17 = load i8, ptr %16, align 8, !tbaa !31
  %18 = zext i8 %17 to i16
  %19 = icmp ult i16 %.029, %18
  br i1 %19, label %44, label %20

20:                                               ; preds = %._crit_edge
  %21 = getelementptr inbounds nuw i8, ptr %0, i64 244
  %22 = load i32, ptr %21, align 4, !tbaa !32
  %23 = add i32 %22, 1
  store i32 %23, ptr %21, align 4, !tbaa !32
  %24 = getelementptr inbounds nuw i8, ptr %0, i64 408
  %25 = load ptr, ptr %24, align 8, !tbaa !33
  %26 = getelementptr inbounds nuw i8, ptr %0, i64 288
  %27 = load ptr, ptr %26, align 8, !tbaa !34
  %28 = zext i32 %23 to i64
  %29 = shl nuw nsw i64 %28, 3
  %30 = tail call ptr @mpool_realloc(ptr noundef %25, ptr noundef %27, i64 noundef %29) #19
  %.not34 = icmp eq ptr %30, null
  br i1 %.not34, label %31, label %34

31:                                               ; preds = %20
  %32 = load i32, ptr %21, align 4, !tbaa !32
  %33 = add i32 %32, -1
  store i32 %33, ptr %21, align 4, !tbaa !32
  tail call void (ptr, ...) @cli_errmsg(ptr noundef nonnull @.str) #19
  br label %44

34:                                               ; preds = %20
  store ptr %30, ptr %26, align 8, !tbaa !34
  %35 = load i32, ptr %21, align 4, !tbaa !32
  %36 = add i32 %35, -1
  %37 = zext i32 %36 to i64
  %38 = getelementptr inbounds nuw ptr, ptr %30, i64 %37
  store ptr %1, ptr %38, align 8, !tbaa !35
  %39 = trunc i16 %.029 to i8
  %40 = getelementptr inbounds nuw i8, ptr %1, i64 128
  store i8 %39, ptr %40, align 8, !tbaa !37
  %41 = getelementptr inbounds nuw i8, ptr %0, i64 264
  %42 = load ptr, ptr %41, align 8, !tbaa !38
  %43 = tail call fastcc i32 @cli_ac_addpatt_recursive(ptr noundef nonnull %0, ptr noundef %1, ptr noundef %42, i16 noundef zeroext 0, i16 noundef zeroext %.029)
  br label %44

44:                                               ; preds = %._crit_edge, %34, %31
  %.030 = phi i32 [ %43, %34 ], [ 20, %31 ], [ 4, %._crit_edge ]
  ret i32 %.030
}